target datalayout = "e-m:e-p270:32:32-p271:32:32-p272:64:64-i64:64-i128:128-f80:128-n8:16:32:64-S128"
target triple = "x86_64-pc-linux-gnu"

@.str.1 = private unnamed_addr constant [103 x i8] c"generated/home/dtcxzyw/WorkSpace/Projects/compilers/llvm-opt-benchmark/bench/hdf5/hdf5/src/H5FDmulti.c\00", align 1
@H5_libinit_g = external global i8, align 1
@H5_libterm_g = external global i8, align 1
@H5E_ERR_CLS_g = external global i64, align 8
@H5E_VFL_g = external global i64, align 8
@__func__.H5FD_multi_ctl = private unnamed_addr constant [15 x i8] c"H5FD_multi_ctl\00", align 1
@H5E_FCNTL_g = external global i64, align 8
@.str.47 = private unnamed_addr constant [73 x i8] c"VFD ctl request failed (unknown op code and fail if unknown flag is set)\00", align 1

; Function Attrs: nounwind uwtable
define internal i32 @H5FD_multi_ctl(ptr noundef %0, i64 noundef %1, i64 noundef %2, ptr noundef %3, ptr noundef %4) #0 {
  %6 = alloca i32, align 4
  %7 = alloca ptr, align 8
  %8 = alloca i64, align 8
  %9 = alloca i64, align 8
  %10 = alloca ptr, align 8
  %11 = alloca ptr, align 8
  %12 = alloca ptr, align 8
  %13 = alloca i32, align 4
  %14 = alloca i32, align 4
  store ptr %0, ptr %7, align 8, !tbaa !3
  store i64 %1, ptr %8, align 8, !tbaa !12
  store i64 %2, ptr %9, align 8, !tbaa !12
  store ptr %3, ptr %10, align 8, !tbaa !40
  store ptr %4, ptr %11, align 8, !tbaa !40
  call void @llvm.lifetime.start.p0(i64 8, ptr %12) #9
  %15 = load ptr, ptr %7, align 8, !tbaa !3
  store ptr %15, ptr %12, align 8, !tbaa !8
  call void @llvm.lifetime.start.p0(i64 4, ptr %13) #9
  store i32 0, ptr %13, align 4, !tbaa !10
  %16 = call i32 @H5Eclear2(i64 noundef 0)
  %17 = load i64, ptr %8, align 8, !tbaa !12
  switch i64 %17, label %18 [
  ]

18:                                               ; preds = %5
  %19 = load i64, ptr %9, align 8, !tbaa !12
  %20 = and i64 %19, 1
  %21 = icmp ne i64 %20, 0
  br i1 %21, label %22, label %84

22:                                               ; preds = %18
  br label %23

23:                                               ; preds = %22
  %24 = load i8, ptr @H5_libinit_g, align 1, !tbaa !22, !range !24, !noundef !25
  %25 = trunc i8 %24 to i1
  br i1 %25, label %30, label %26

26:                                               ; preds = %23
  %27 = load i8, ptr @H5_libterm_g, align 1, !tbaa !22, !range !24, !noundef !25
  %28 = trunc i8 %27 to i1
  %29 = xor i1 %28, true
  br label %30

30:                                               ; preds = %26, %23
  %31 = phi i1 [ false, %23 ], [ %29, %26 ]
  %32 = xor i1 %31, true
  %33 = xor i1 %32, true
  %34 = zext i1 %33 to i32
  %35 = sext i32 %34 to i64
  %36 = call i64 @llvm.expect.i64(i64 %35, i64 0)
  %37 = icmp ne i64 %36, 0
  br i1 %37, label %38, label %40

38:                                               ; preds = %30
  %39 = call i32 @H5open()
  br label %41

40:                                               ; preds = %30
  br label %41

41:                                               ; preds = %40, %38
  %42 = load i64, ptr @H5E_ERR_CLS_g, align 8, !tbaa !12
  %43 = load i8, ptr @H5_libinit_g, align 1, !tbaa !22, !range !24, !noundef !25
  %44 = trunc i8 %43 to i1
  br i1 %44, label %49, label %45

45:                                               ; preds = %41
  %46 = load i8, ptr @H5_libterm_g, align 1, !tbaa !22, !range !24, !noundef !25
  %47 = trunc i8 %46 to i1
  %48 = xor i1 %47, true
  br label %49

49:                                               ; preds = %45, %41
  %50 = phi i1 [ false, %41 ], [ %48, %45 ]
  %51 = xor i1 %50, true
  %52 = xor i1 %51, true
  %53 = zext i1 %52 to i32
  %54 = sext i32 %53 to i64
  %55 = call i64 @llvm.expect.i64(i64 %54, i64 0)
  %56 = icmp ne i64 %55, 0
  br i1 %56, label %57, label %59

57:                                               ; preds = %49
  %58 = call i32 @H5open()
  br label %60

59:                                               ; preds = %49
  br label %60

60:                                               ; preds = %59, %57
  %61 = load i64, ptr @H5E_VFL_g, align 8, !tbaa !12
  %62 = load i8, ptr @H5_libinit_g, align 1, !tbaa !22, !range !24, !noundef !25
  %63 = trunc i8 %62 to i1
  br i1 %63, label %68, label %64

64:                                               ; preds = %60
  %65 = load i8, ptr @H5_libterm_g, align 1, !tbaa !22, !range !24, !noundef !25
  %66 = trunc i8 %65 to i1
  %67 = xor i1 %66, true
  br label %68

68:                                               ; preds = %64, %60
  %69 = phi i1 [ false, %60 ], [ %67, %64 ]
  %70 = xor i1 %69, true
  %71 = xor i1 %70, true
  %72 = zext i1 %71 to i32
  %73 = sext i32 %72 to i64
  %74 = call i64 @llvm.expect.i64(i64 %73, i64 0)
  %75 = icmp ne i64 %74, 0
  br i1 %75, label %76, label %78

76:                                               ; preds = %68
  %77 = call i32 @H5open()
  br label %79

78:                                               ; preds = %68
  br label %79

79:                                               ; preds = %78, %76
  %80 = load i64, ptr @H5E_FCNTL_g, align 8, !tbaa !12
  %81 = call i32 (i64, ptr, ptr, i32, i64, i64, i64, ptr, ...) @H5Epush2(i64 noundef 0, ptr noundef @.str.1, ptr noundef @__func__.H5FD_multi_ctl, i32 noundef 2051, i64 noundef %42, i64 noundef %61, i64 noundef %80, ptr noundef @.str.47)
  store i32 -1, ptr %6, align 4
  store i32 1, ptr %14, align 4
  br label %87

82:                                               ; No predecessors!
  br label %83

83:                                               ; preds = %82
  br label %84

84:                                               ; preds = %83, %18
  br label %85

85:                                               ; preds = %84
  %86 = load i32, ptr %13, align 4, !tbaa !10
  store i32 %86, ptr %6, align 4
  store i32 1, ptr %14, align 4
  br label %87

87:                                               ; preds = %85, %79
  call void @llvm.lifetime.end.p0(i64 4, ptr %13) #9
  call void @llvm.lifetime.end.p0(i64 8, ptr %12) #9
  %88 = load i32, ptr %6, align 4
  ret i32 %88
}