; Function Attrs: nounwind uwtable
define internal range(i32 -1, 1) i32 @H5FD_multi_ctl(ptr readnone captures(none) %0, i64 %1, i64 noundef %2, ptr readnone captures(none) %3, ptr readnone captures(none) %4) #0 {
  %6 = tail call i32 @H5Eclear2(i64 noundef 0) #15
  %7 = and i64 %2, 1
  %.not = icmp eq i64 %7, 0
  br i1 %.not, label %37, label %8

8:                                                ; preds = %5
  %9 = load i8, ptr @H5_libinit_g, align 1, !tbaa !18, !range !20, !noundef !21
  %10 = trunc nuw i8 %9 to i1
  %11 = load i8, ptr @H5_libterm_g, align 1, !range !20
  %12 = trunc nuw i8 %11 to i1
  %13 = select i1 %10, i1 true, i1 %12
  br i1 %13, label %16, label %14, !prof !22

14:                                               ; preds = %8
  %15 = tail call i32 @H5open() #15
  %.pre = load i8, ptr @H5_libinit_g, align 1, !tbaa !18, !range !20
  %.pre3 = load i8, ptr @H5_libterm_g, align 1, !range !20
  br label %16

16:                                               ; preds = %8, %14
  %17 = phi i8 [ %11, %8 ], [ %.pre3, %14 ]
  %18 = phi i8 [ %9, %8 ], [ %.pre, %14 ]
  %19 = load i64, ptr @H5E_ERR_CLS_g, align 8, !tbaa !23
  %20 = trunc nuw i8 %18 to i1
  %21 = trunc nuw i8 %17 to i1
  %22 = select i1 %20, i1 true, i1 %21
  br i1 %22, label %25, label %23, !prof !22

23:                                               ; preds = %16
  %24 = tail call i32 @H5open() #15
  %.pre4 = load i8, ptr @H5_libinit_g, align 1, !tbaa !18, !range !20
  %.pre5 = load i8, ptr @H5_libterm_g, align 1, !range !20
  br label %25

25:                                               ; preds = %16, %23
  %26 = phi i8 [ %17, %16 ], [ %.pre5, %23 ]
  %27 = phi i8 [ %18, %16 ], [ %.pre4, %23 ]
  %28 = load i64, ptr @H5E_VFL_g, align 8, !tbaa !23
  %29 = trunc nuw i8 %27 to i1
  %30 = trunc nuw i8 %26 to i1
  %31 = select i1 %29, i1 true, i1 %30
  br i1 %31, label %34, label %32, !prof !22

32:                                               ; preds = %25
  %33 = tail call i32 @H5open() #15
  br label %34

34:                                               ; preds = %25, %32
  %35 = load i64, ptr @H5E_FCNTL_g, align 8, !tbaa !23
  %36 = tail call i32 (i64, ptr, ptr, i32, i64, i64, i64, ptr, ...) @H5Epush2(i64 noundef 0, ptr noundef nonnull @.str.1, ptr noundef nonnull @__func__.H5FD_multi_ctl, i32 noundef 2051, i64 noundef %19, i64 noundef %28, i64 noundef %35, ptr noundef nonnull @.str.47) #15
  br label %37

37:                                               ; preds = %5, %34
  %.0 = phi i32 [ -1, %34 ], [ 0, %5 ]
  ret i32 %.0
}